target datalayout = "e-m:e-p270:32:32-p271:32:32-p272:64:64-i64:64-i128:128-f80:128-n8:16:32:64-S128"
target triple = "x86_64-pc-linux-gnu"

%struct.reassembly_table = type { ptr, ptr, ptr, ptr, ptr }
%struct._packet_info = type { ptr, ptr, i32, i32, %struct.nstime_t, %struct.nstime_t, %struct.nstime_t, i8, ptr, ptr, ptr, ptr, %struct._address, %struct._address, %struct._address, %struct._address, %struct._address, %struct._address, i32, ptr, i8, [3 x i8], %struct.anon, i32, i32, i32, i32, ptr, i8, ptr, ptr, i16, i16, i32, i32, i16, i32, i32, ptr, ptr, ptr, i8, i8, i16, i16, i16, i32, i16, i16, ptr, ptr, ptr, ptr, ptr, i32, i32 }
%struct.nstime_t = type { i64, i32 }
%struct._address = type { i32, i32, ptr, ptr }
%struct.anon = type { i8, [3 x i8] }
%struct._frame_data = type <{ i32, i32, i32, i32, i32, [4 x i8], i64, ptr, ptr, ptr, i8, i16, [5 x i8], %struct.nstime_t, %struct.nstime_t, i32, i32 }>
%struct.conversation = type { ptr, ptr, ptr, i32, i32, i32, ptr, ptr, i32, ptr }
%struct._fragment_head = type { ptr, ptr, i32, i32, i32, i32, i32, i32, i32, i8, i32, ptr, ptr }
%struct._proto_node = type { ptr, ptr, ptr, ptr, ptr, ptr, ptr }
%struct.field_info = type { ptr, i32, i32, i32, i32, i32, i32, ptr, ptr, ptr, i32, i32 }

@pn_rsi_reassembly_table = internal global %struct.reassembly_table zeroinitializer, align 8
@hf_pn_rsi_reassembled_in = internal global i32 0, align 4
@hf_pn_rsi_data_payload = internal global i32 0, align 4
@.str.103 = private unnamed_addr constant [1 x i8] zeroinitializer, align 1
@ett_pn_rsi_data_payload = internal global i32 0, align 4
@.str.117 = private unnamed_addr constant [23 x i8] c" [%sPN IO RSI Segment]\00", align 1
@.str.118 = private unnamed_addr constant [6 x i8] c"Last \00", align 1
@.str.119 = private unnamed_addr constant [29 x i8] c"Reassembled PN IO RSI packet\00", align 1

; Function Attrs: inlinehint nounwind null_pointer_is_valid sspstrong uwtable
define internal void @proto_item_set_generated(ptr noundef %0) #3 {
  %2 = alloca ptr, align 8
  store ptr %0, ptr %2, align 8
  %3 = load ptr, ptr %2, align 8
  %4 = icmp ne ptr %3, null
  br i1 %4, label %5, label %24

5:                                                ; preds = %1
  br label %6

6:                                                ; preds = %5
  %7 = load ptr, ptr %2, align 8
  %8 = getelementptr inbounds nuw %struct._proto_node, ptr %7, i32 0, i32 5
  %9 = load ptr, ptr %8, align 8
  %10 = icmp ne ptr %9, null
  br i1 %10, label %11, label %22

11:                                               ; preds = %6
  %12 = load ptr, ptr %2, align 8
  %13 = getelementptr inbounds nuw %struct._proto_node, ptr %12, i32 0, i32 5
  %14 = load ptr, ptr %13, align 8
  %15 = getelementptr inbounds nuw %struct.field_info, ptr %14, i32 0, i32 6
  %16 = load i32, ptr %15, align 4
  %17 = or i32 %16, 2
  %18 = load ptr, ptr %2, align 8
  %19 = getelementptr inbounds nuw %struct._proto_node, ptr %18, i32 0, i32 5
  %20 = load ptr, ptr %19, align 8
  %21 = getelementptr inbounds nuw %struct.field_info, ptr %20, i32 0, i32 6
  store i32 %17, ptr %21, align 4
  br label %22

22:                                               ; preds = %11, %6
  br label %23

23:                                               ; preds = %22
  br label %24

24:                                               ; preds = %23, %1
  ret void
}

; Function Attrs: null_pointer_is_valid sspstrong uwtable
define internal i32 @dissect_pn_rta_remaining_user_data_bytes(ptr noundef %0, i32 noundef %1, ptr noundef %2, ptr noundef %3, ptr noundef %4, i32 noundef %5, i8 noundef zeroext %6, i32 noundef %7, i32 noundef %8) #0 {
  %10 = alloca i32, align 4
  %11 = alloca ptr, align 8
  %12 = alloca i32, align 4
  %13 = alloca ptr, align 8
  %14 = alloca ptr, align 8
  %15 = alloca ptr, align 8
  %16 = alloca i32, align 4
  %17 = alloca i8, align 1
  %18 = alloca i32, align 4
  %19 = alloca i32, align 4
  %20 = alloca ptr, align 8
  %21 = alloca ptr, align 8
  %22 = alloca ptr, align 8
  %23 = alloca ptr, align 8
  %24 = alloca ptr, align 8
  %25 = alloca ptr, align 8
  %26 = alloca ptr, align 8
  %27 = alloca i8, align 1
  %28 = alloca i32, align 4
  %29 = alloca ptr, align 8
  store ptr %0, ptr %11, align 8
  store i32 %1, ptr %12, align 4
  store ptr %2, ptr %13, align 8
  store ptr %3, ptr %14, align 8
  store ptr %4, ptr %15, align 8
  store i32 %5, ptr %16, align 4
  store i8 %6, ptr %17, align 1
  store i32 %7, ptr %18, align 4
  store i32 %8, ptr %19, align 4
  call void @llvm.lifetime.start.p0(i64 8, ptr %20) #4
  call void @llvm.lifetime.start.p0(i64 8, ptr %21) #4
  call void @llvm.lifetime.start.p0(i64 8, ptr %22) #4
  call void @llvm.lifetime.start.p0(i64 8, ptr %23) #4
  call void @llvm.lifetime.start.p0(i64 8, ptr %24) #4
  call void @llvm.lifetime.start.p0(i64 8, ptr %25) #4
  store ptr null, ptr %25, align 8
  call void @llvm.lifetime.start.p0(i64 8, ptr %26) #4
  store ptr null, ptr %26, align 8
  call void @llvm.lifetime.start.p0(i64 1, ptr %27) #4
  store i8 1, ptr %27, align 1
  %30 = load ptr, ptr %13, align 8
  %31 = getelementptr inbounds nuw %struct._packet_info, ptr %30, i32 0, i32 24
  %32 = load i32, ptr %31, align 4
  %33 = icmp ne i32 %32, 0
  br i1 %33, label %34, label %86

34:                                               ; preds = %9
  %35 = load ptr, ptr %13, align 8
  %36 = getelementptr inbounds nuw %struct._packet_info, ptr %35, i32 0, i32 25
  %37 = load i32, ptr %36, align 8
  %38 = icmp ne i32 %37, 0
  br i1 %38, label %39, label %86

39:                                               ; preds = %34
  %40 = load ptr, ptr %13, align 8
  %41 = getelementptr inbounds nuw %struct._packet_info, ptr %40, i32 0, i32 8
  %42 = load ptr, ptr %41, align 8
  %43 = getelementptr inbounds nuw %struct._frame_data, ptr %42, i32 0, i32 0
  %44 = load i32, ptr %43, align 8
  %45 = load ptr, ptr %13, align 8
  %46 = getelementptr inbounds nuw %struct._packet_info, ptr %45, i32 0, i32 16
  %47 = load ptr, ptr %13, align 8
  %48 = getelementptr inbounds nuw %struct._packet_info, ptr %47, i32 0, i32 17
  %49 = load ptr, ptr %13, align 8
  %50 = getelementptr inbounds nuw %struct._packet_info, ptr %49, i32 0, i32 24
  %51 = load i32, ptr %50, align 4
  %52 = load ptr, ptr %13, align 8
  %53 = getelementptr inbounds nuw %struct._packet_info, ptr %52, i32 0, i32 25
  %54 = load i32, ptr %53, align 8
  %55 = call ptr @find_conversation(i32 noundef %44, ptr noundef %46, ptr noundef %48, i32 noundef 0, i32 noundef %51, i32 noundef %54, i32 noundef 0)
  store ptr %55, ptr %22, align 8
  %56 = load ptr, ptr %22, align 8
  %57 = icmp ne ptr %56, null
  br i1 %57, label %75, label %58

58:                                               ; preds = %39
  %59 = load ptr, ptr %13, align 8
  %60 = getelementptr inbounds nuw %struct._packet_info, ptr %59, i32 0, i32 8
  %61 = load ptr, ptr %60, align 8
  %62 = getelementptr inbounds nuw %struct._frame_data, ptr %61, i32 0, i32 0
  %63 = load i32, ptr %62, align 8
  %64 = load ptr, ptr %13, align 8
  %65 = getelementptr inbounds nuw %struct._packet_info, ptr %64, i32 0, i32 16
  %66 = load ptr, ptr %13, align 8
  %67 = getelementptr inbounds nuw %struct._packet_info, ptr %66, i32 0, i32 17
  %68 = load ptr, ptr %13, align 8
  %69 = getelementptr inbounds nuw %struct._packet_info, ptr %68, i32 0, i32 24
  %70 = load i32, ptr %69, align 4
  %71 = load ptr, ptr %13, align 8
  %72 = getelementptr inbounds nuw %struct._packet_info, ptr %71, i32 0, i32 25
  %73 = load i32, ptr %72, align 8
  %74 = call ptr @conversation_new(i32 noundef %63, ptr noundef %65, ptr noundef %67, i32 noundef 0, i32 noundef %70, i32 noundef %73, i32 noundef 0)
  store ptr %74, ptr %22, align 8
  br label %75

75:                                               ; preds = %58, %39
  %76 = load ptr, ptr %13, align 8
  %77 = load ptr, ptr %22, align 8
  %78 = getelementptr inbounds nuw %struct.conversation, ptr %77, i32 0, i32 3
  %79 = load i32, ptr %78, align 8
  %80 = call ptr @fragment_get(ptr noundef @pn_rsi_reassembly_table, ptr noundef %76, i32 noundef %79, ptr noundef null)
  store ptr %80, ptr %20, align 8
  %81 = load ptr, ptr %13, align 8
  %82 = load ptr, ptr %22, align 8
  %83 = getelementptr inbounds nuw %struct.conversation, ptr %82, i32 0, i32 3
  %84 = load i32, ptr %83, align 8
  %85 = call ptr @fragment_get_reassembled_id(ptr noundef @pn_rsi_reassembly_table, ptr noundef %81, i32 noundef %84)
  store ptr %85, ptr %21, align 8
  br label %137

86:                                               ; preds = %34, %9
  %87 = load ptr, ptr %13, align 8
  %88 = getelementptr inbounds nuw %struct._packet_info, ptr %87, i32 0, i32 8
  %89 = load ptr, ptr %88, align 8
  %90 = getelementptr inbounds nuw %struct._frame_data, ptr %89, i32 0, i32 0
  %91 = load i32, ptr %90, align 8
  %92 = load ptr, ptr %13, align 8
  %93 = getelementptr inbounds nuw %struct._packet_info, ptr %92, i32 0, i32 16
  %94 = load ptr, ptr %13, align 8
  %95 = getelementptr inbounds nuw %struct._packet_info, ptr %94, i32 0, i32 17
  %96 = load ptr, ptr %13, align 8
  %97 = getelementptr inbounds nuw %struct._packet_info, ptr %96, i32 0, i32 44
  %98 = load i16, ptr %97, align 4
  %99 = zext i16 %98 to i32
  %100 = load ptr, ptr %13, align 8
  %101 = getelementptr inbounds nuw %struct._packet_info, ptr %100, i32 0, i32 45
  %102 = load i16, ptr %101, align 2
  %103 = zext i16 %102 to i32
  %104 = call ptr @find_conversation(i32 noundef %91, ptr noundef %93, ptr noundef %95, i32 noundef 0, i32 noundef %99, i32 noundef %103, i32 noundef 0)
  store ptr %104, ptr %22, align 8
  %105 = load ptr, ptr %22, align 8
  %106 = icmp ne ptr %105, null
  br i1 %106, label %126, label %107

107:                                              ; preds = %86
  %108 = load ptr, ptr %13, align 8
  %109 = getelementptr inbounds nuw %struct._packet_info, ptr %108, i32 0, i32 8
  %110 = load ptr, ptr %109, align 8
  %111 = getelementptr inbounds nuw %struct._frame_data, ptr %110, i32 0, i32 0
  %112 = load i32, ptr %111, align 8
  %113 = load ptr, ptr %13, align 8
  %114 = getelementptr inbounds nuw %struct._packet_info, ptr %113, i32 0, i32 16
  %115 = load ptr, ptr %13, align 8
  %116 = getelementptr inbounds nuw %struct._packet_info, ptr %115, i32 0, i32 17
  %117 = load ptr, ptr %13, align 8
  %118 = getelementptr inbounds nuw %struct._packet_info, ptr %117, i32 0, i32 44
  %119 = load i16, ptr %118, align 4
  %120 = zext i16 %119 to i32
  %121 = load ptr, ptr %13, align 8
  %122 = getelementptr inbounds nuw %struct._packet_info, ptr %121, i32 0, i32 45
  %123 = load i16, ptr %122, align 2
  %124 = zext i16 %123 to i32
  %125 = call ptr @conversation_new(i32 noundef %112, ptr noundef %114, ptr noundef %116, i32 noundef 0, i32 noundef %120, i32 noundef %124, i32 noundef 0)
  store ptr %125, ptr %22, align 8
  br label %126

126:                                              ; preds = %107, %86
  %127 = load ptr, ptr %13, align 8
  %128 = load ptr, ptr %22, align 8
  %129 = getelementptr inbounds nuw %struct.conversation, ptr %128, i32 0, i32 3
  %130 = load i32, ptr %129, align 8
  %131 = call ptr @fragment_get(ptr noundef @pn_rsi_reassembly_table, ptr noundef %127, i32 noundef %130, ptr noundef null)
  store ptr %131, ptr %20, align 8
  %132 = load ptr, ptr %13, align 8
  %133 = load ptr, ptr %22, align 8
  %134 = getelementptr inbounds nuw %struct.conversation, ptr %133, i32 0, i32 3
  %135 = load i32, ptr %134, align 8
  %136 = call ptr @fragment_get_reassembled_id(ptr noundef @pn_rsi_reassembly_table, ptr noundef %132, i32 noundef %135)
  store ptr %136, ptr %21, align 8
  br label %137

137:                                              ; preds = %126, %75
  %138 = load i8, ptr %17, align 1
  %139 = icmp ne i8 %138, 0
  br i1 %139, label %154, label %140

140:                                              ; preds = %137
  %141 = load ptr, ptr %20, align 8
  %142 = icmp ne ptr %141, null
  br i1 %142, label %154, label %143

143:                                              ; preds = %140
  %144 = load ptr, ptr %21, align 8
  %145 = icmp ne ptr %144, null
  br i1 %145, label %154, label %146

146:                                              ; preds = %143
  %147 = load ptr, ptr %11, align 8
  %148 = load i32, ptr %12, align 4
  %149 = load ptr, ptr %13, align 8
  %150 = load ptr, ptr %14, align 8
  %151 = load ptr, ptr %15, align 8
  %152 = call i32 @dissect_blocks(ptr noundef %147, i32 noundef %148, ptr noundef %149, ptr noundef %150, ptr noundef %151)
  store i32 %152, ptr %12, align 4
  %153 = load i32, ptr %12, align 4
  store i32 %153, ptr %10, align 4
  store i32 1, ptr %28, align 4
  br label %239

154:                                              ; preds = %143, %140, %137
  %155 = load ptr, ptr %13, align 8
  %156 = getelementptr inbounds nuw %struct._packet_info, ptr %155, i32 0, i32 8
  %157 = load ptr, ptr %156, align 8
  %158 = getelementptr inbounds nuw %struct._frame_data, ptr %157, i32 0, i32 11
  %159 = load i16, ptr %158, align 1
  %160 = lshr i16 %159, 3
  %161 = and i16 %160, 1
  %162 = zext i16 %161 to i32
  %163 = icmp ne i32 %162, 0
  br i1 %163, label %183, label %164

164:                                              ; preds = %154
  %165 = load ptr, ptr %22, align 8
  %166 = icmp ne ptr %165, null
  br i1 %166, label %167, label %183

167:                                              ; preds = %164
  %168 = load ptr, ptr %11, align 8
  %169 = load i32, ptr %12, align 4
  %170 = load ptr, ptr %13, align 8
  %171 = load ptr, ptr %22, align 8
  %172 = getelementptr inbounds nuw %struct.conversation, ptr %171, i32 0, i32 3
  %173 = load i32, ptr %172, align 8
  %174 = load i32, ptr %16, align 4
  %175 = load i8, ptr %17, align 1
  %176 = icmp ne i8 %175, 0
  %177 = call ptr @fragment_add_seq_next(ptr noundef @pn_rsi_reassembly_table, ptr noundef %168, i32 noundef %169, ptr noundef %170, i32 noundef %173, ptr noundef null, i32 noundef %174, i1 noundef zeroext %176)
  %178 = load ptr, ptr %13, align 8
  %179 = load ptr, ptr %22, align 8
  %180 = getelementptr inbounds nuw %struct.conversation, ptr %179, i32 0, i32 3
  %181 = load i32, ptr %180, align 8
  %182 = call ptr @fragment_get_reassembled_id(ptr noundef @pn_rsi_reassembly_table, ptr noundef %178, i32 noundef %181)
  store ptr %182, ptr %21, align 8
  br label %183

183:                                              ; preds = %167, %164, %154
  %184 = load ptr, ptr %13, align 8
  %185 = getelementptr inbounds nuw %struct._packet_info, ptr %184, i32 0, i32 1
  %186 = load ptr, ptr %185, align 8
  %187 = load i8, ptr %17, align 1
  %188 = zext i8 %187 to i32
  %189 = icmp ne i32 %188, 0
  %190 = select i1 %189, ptr @.str.103, ptr @.str.118
  call void (ptr, i32, ptr, ...) @col_append_fstr(ptr noundef %186, i32 noundef 25, ptr noundef @.str.117, ptr noundef %190)
  %191 = load ptr, ptr %21, align 8
  %192 = icmp ne ptr %191, null
  br i1 %192, label %193, label %237

193:                                              ; preds = %183
  %194 = load ptr, ptr %13, align 8
  %195 = getelementptr inbounds nuw %struct._packet_info, ptr %194, i32 0, i32 8
  %196 = load ptr, ptr %195, align 8
  %197 = getelementptr inbounds nuw %struct._frame_data, ptr %196, i32 0, i32 0
  %198 = load i32, ptr %197, align 8
  %199 = load ptr, ptr %21, align 8
  %200 = getelementptr inbounds nuw %struct._fragment_head, ptr %199, i32 0, i32 8
  %201 = load i32, ptr %200, align 8
  %202 = icmp eq i32 %198, %201
  br i1 %202, label %203, label %225

203:                                              ; preds = %193
  %204 = load ptr, ptr %11, align 8
  %205 = load ptr, ptr %13, align 8
  %206 = load ptr, ptr %21, align 8
  %207 = load ptr, ptr %14, align 8
  %208 = call ptr @process_reassembled_data(ptr noundef %204, i32 noundef 0, ptr noundef %205, ptr noundef @.str.119, ptr noundef %206, ptr noundef @pn_rsi_frag_items, ptr noundef %27, ptr noundef %207)
  store ptr %208, ptr %23, align 8
  %209 = load ptr, ptr %14, align 8
  %210 = load i32, ptr @hf_pn_rsi_data_payload, align 4
  %211 = load ptr, ptr %23, align 8
  %212 = load ptr, ptr %23, align 8
  %213 = call i32 @tvb_captured_length(ptr noundef %212)
  %214 = call ptr @proto_tree_add_item(ptr noundef %209, i32 noundef %210, ptr noundef %211, i32 noundef 0, i32 noundef %213, i32 noundef 0)
  store ptr %214, ptr %25, align 8
  %215 = load ptr, ptr %25, align 8
  %216 = load i32, ptr @ett_pn_rsi_data_payload, align 4
  %217 = call ptr @proto_item_add_subtree(ptr noundef %215, i32 noundef %216)
  store ptr %217, ptr %26, align 8
  %218 = load ptr, ptr %23, align 8
  %219 = load ptr, ptr %13, align 8
  %220 = load ptr, ptr %26, align 8
  %221 = load ptr, ptr %15, align 8
  %222 = load i32, ptr %18, align 4
  %223 = load i32, ptr %19, align 4
  %224 = call i32 @dissect_rsi_blocks(ptr noundef %218, i32 noundef 0, ptr noundef %219, ptr noundef %220, ptr noundef %221, i32 noundef %222, i32 noundef %223)
  store i32 %224, ptr %12, align 4
  br label %236

225:                                              ; preds = %193
  call void @llvm.lifetime.start.p0(i64 8, ptr %29) #4
  %226 = load ptr, ptr %14, align 8
  %227 = call ptr @proto_tree_get_parent(ptr noundef %226)
  store ptr %227, ptr %24, align 8
  %228 = load ptr, ptr %24, align 8
  %229 = load i32, ptr @hf_pn_rsi_reassembled_in, align 4
  %230 = load ptr, ptr %11, align 8
  %231 = load ptr, ptr %21, align 8
  %232 = getelementptr inbounds nuw %struct._fragment_head, ptr %231, i32 0, i32 8
  %233 = load i32, ptr %232, align 8
  %234 = call ptr @proto_tree_add_uint(ptr noundef %228, i32 noundef %229, ptr noundef %230, i32 noundef 0, i32 noundef 0, i32 noundef %233)
  store ptr %234, ptr %29, align 8
  %235 = load ptr, ptr %29, align 8
  call void @proto_item_set_generated(ptr noundef %235)
  call void @llvm.lifetime.end.p0(i64 8, ptr %29) #4
  br label %236

236:                                              ; preds = %225, %203
  br label %237

237:                                              ; preds = %236, %183
  %238 = load i32, ptr %12, align 4
  store i32 %238, ptr %10, align 4
  store i32 1, ptr %28, align 4
  br label %239

239:                                              ; preds = %237, %146
  call void @llvm.lifetime.end.p0(i64 1, ptr %27) #4
  call void @llvm.lifetime.end.p0(i64 8, ptr %26) #4
  call void @llvm.lifetime.end.p0(i64 8, ptr %25) #4
  call void @llvm.lifetime.end.p0(i64 8, ptr %24) #4
  call void @llvm.lifetime.end.p0(i64 8, ptr %23) #4
  call void @llvm.lifetime.end.p0(i64 8, ptr %22) #4
  call void @llvm.lifetime.end.p0(i64 8, ptr %21) #4
  call void @llvm.lifetime.end.p0(i64 8, ptr %20) #4
  %240 = load i32, ptr %10, align 4
  ret i32 %240
}