; Function Attrs: null_pointer_is_valid sspstrong uwtable
define internal fastcc i32 @dissect_pn_rta_remaining_user_data_bytes(ptr noundef %0, i32 noundef %1, ptr noundef %2, ptr noundef %3, ptr noundef %4, i32 noundef %5, i8 noundef zeroext range(i8 0, 2) %6, i32 noundef range(i32 0, 32) %7, i32 noundef range(i32 5, 7) %8) unnamed_addr #0 {
  %10 = alloca i8, align 1
  call void @llvm.lifetime.start.p0(i64 1, ptr nonnull %10) #3
  store i8 1, ptr %10, align 1
  %11 = getelementptr inbounds nuw i8, ptr %2, i64 284
  %12 = load i32, ptr %11, align 4
  %.not = icmp eq i32 %12, 0
  br i1 %.not, label %29, label %13

13:                                               ; preds = %9
  %14 = getelementptr inbounds nuw i8, ptr %2, i64 288
  %15 = load i32, ptr %14, align 8
  %.not90 = icmp eq i32 %15, 0
  br i1 %.not90, label %29, label %16

16:                                               ; preds = %13
  %17 = getelementptr inbounds nuw i8, ptr %2, i64 80
  %18 = load ptr, ptr %17, align 8
  %19 = load i32, ptr %18, align 8
  %20 = getelementptr inbounds nuw i8, ptr %2, i64 208
  %21 = getelementptr inbounds nuw i8, ptr %2, i64 232
  %22 = tail call ptr @find_conversation(i32 noundef %19, ptr noundef nonnull %20, ptr noundef nonnull %21, i32 noundef 0, i32 noundef %12, i32 noundef %15, i32 noundef 0)
  %.not92 = icmp eq ptr %22, null
  br i1 %.not92, label %23, label %50

23:                                               ; preds = %16
  %24 = load ptr, ptr %17, align 8
  %25 = load i32, ptr %24, align 8
  %26 = load i32, ptr %11, align 4
  %27 = load i32, ptr %14, align 8
  %28 = tail call ptr @conversation_new(i32 noundef %25, ptr noundef nonnull %20, ptr noundef nonnull %21, i32 noundef 0, i32 noundef %26, i32 noundef %27, i32 noundef 0)
  br label %50

29:                                               ; preds = %13, %9
  %30 = getelementptr inbounds nuw i8, ptr %2, i64 80
  %31 = load ptr, ptr %30, align 8
  %32 = load i32, ptr %31, align 8
  %33 = getelementptr inbounds nuw i8, ptr %2, i64 208
  %34 = getelementptr inbounds nuw i8, ptr %2, i64 232
  %35 = getelementptr inbounds nuw i8, ptr %2, i64 380
  %36 = load i16, ptr %35, align 4
  %37 = zext i16 %36 to i32
  %38 = getelementptr inbounds nuw i8, ptr %2, i64 382
  %39 = load i16, ptr %38, align 2
  %40 = zext i16 %39 to i32
  %41 = tail call ptr @find_conversation(i32 noundef %32, ptr noundef nonnull %33, ptr noundef nonnull %34, i32 noundef 0, i32 noundef %37, i32 noundef %40, i32 noundef 0)
  %.not91 = icmp eq ptr %41, null
  br i1 %.not91, label %42, label %50

42:                                               ; preds = %29
  %43 = load ptr, ptr %30, align 8
  %44 = load i32, ptr %43, align 8
  %45 = load i16, ptr %35, align 4
  %46 = zext i16 %45 to i32
  %47 = load i16, ptr %38, align 2
  %48 = zext i16 %47 to i32
  %49 = tail call ptr @conversation_new(i32 noundef %44, ptr noundef nonnull %33, ptr noundef nonnull %34, i32 noundef 0, i32 noundef %46, i32 noundef %48, i32 noundef 0)
  br label %50

50:                                               ; preds = %29, %42, %16, %23
  %.2.sink = phi ptr [ %22, %16 ], [ %28, %23 ], [ %41, %29 ], [ %49, %42 ]
  %51 = getelementptr inbounds nuw i8, ptr %.2.sink, i64 24
  %52 = load i32, ptr %51, align 8
  %53 = tail call ptr @fragment_get(ptr noundef nonnull @pn_rsi_reassembly_table, ptr noundef %2, i32 noundef %52, ptr noundef null)
  %54 = load i32, ptr %51, align 8
  %55 = tail call ptr @fragment_get_reassembled_id(ptr noundef nonnull @pn_rsi_reassembly_table, ptr noundef %2, i32 noundef %54)
  %56 = icmp ne i8 %6, 0
  %57 = icmp ne ptr %53, null
  %or.cond = select i1 %56, i1 true, i1 %57
  %58 = icmp ne ptr %55, null
  %or.cond3 = select i1 %or.cond, i1 true, i1 %58
  br i1 %or.cond3, label %61, label %59

59:                                               ; preds = %50
  %60 = tail call i32 @dissect_blocks(ptr noundef %0, i32 noundef %1, ptr noundef %2, ptr noundef %3, ptr noundef %4)
  br label %proto_item_set_generated.exit

61:                                               ; preds = %50
  %62 = getelementptr inbounds nuw i8, ptr %2, i64 80
  %63 = load ptr, ptr %62, align 8
  %64 = getelementptr inbounds nuw i8, ptr %63, i64 57
  %65 = load i16, ptr %64, align 1
  %66 = and i16 %65, 8
  %67 = icmp eq i16 %66, 0
  %68 = icmp ne ptr %.2.sink, null
  %or.cond5 = and i1 %68, %67
  br i1 %or.cond5, label %69, label %75

69:                                               ; preds = %61
  %70 = getelementptr inbounds nuw i8, ptr %.2.sink, i64 24
  %71 = load i32, ptr %70, align 8
  %72 = tail call ptr @fragment_add_seq_next(ptr noundef nonnull @pn_rsi_reassembly_table, ptr noundef %0, i32 noundef %1, ptr noundef %2, i32 noundef %71, ptr noundef null, i32 noundef %5, i1 noundef zeroext %56)
  %73 = load i32, ptr %70, align 8
  %74 = tail call ptr @fragment_get_reassembled_id(ptr noundef nonnull @pn_rsi_reassembly_table, ptr noundef %2, i32 noundef %73)
  br label %75

75:                                               ; preds = %69, %61
  %.185 = phi ptr [ %74, %69 ], [ %55, %61 ]
  %76 = getelementptr inbounds nuw i8, ptr %2, i64 8
  %77 = load ptr, ptr %76, align 8
  %.not93 = icmp eq i8 %6, 0
  %78 = select i1 %.not93, ptr @.str.118, ptr @.str.103
  tail call void (ptr, i32, ptr, ...) @col_append_fstr(ptr noundef %77, i32 noundef 25, ptr noundef nonnull @.str.117, ptr noundef nonnull %78)
  %.not94 = icmp eq ptr %.185, null
  br i1 %.not94, label %proto_item_set_generated.exit, label %79

79:                                               ; preds = %75
  %80 = load ptr, ptr %62, align 8
  %81 = load i32, ptr %80, align 8
  %82 = getelementptr inbounds nuw i8, ptr %.185, i64 40
  %83 = load i32, ptr %82, align 8
  %84 = icmp eq i32 %81, %83
  br i1 %84, label %85, label %93

85:                                               ; preds = %79
  %86 = call ptr @process_reassembled_data(ptr noundef %0, i32 noundef 0, ptr noundef %2, ptr noundef nonnull @.str.119, ptr noundef nonnull %.185, ptr noundef nonnull @pn_rsi_frag_items, ptr noundef nonnull %10, ptr noundef %3)
  %87 = load i32, ptr @hf_pn_rsi_data_payload, align 4
  %88 = call i32 @tvb_captured_length(ptr noundef %86)
  %89 = call ptr @proto_tree_add_item(ptr noundef %3, i32 noundef %87, ptr noundef %86, i32 noundef 0, i32 noundef %88, i32 noundef 0)
  %90 = load i32, ptr @ett_pn_rsi_data_payload, align 4
  %91 = call ptr @proto_item_add_subtree(ptr noundef %89, i32 noundef %90)
  %92 = call i32 @dissect_rsi_blocks(ptr noundef %86, i32 noundef 0, ptr noundef %2, ptr noundef %91, ptr noundef %4, i32 noundef %7, i32 noundef %8)
  br label %proto_item_set_generated.exit

93:                                               ; preds = %79
  %94 = tail call ptr @proto_tree_get_parent(ptr noundef %3)
  %95 = load i32, ptr @hf_pn_rsi_reassembled_in, align 4
  %96 = load i32, ptr %82, align 8
  %97 = tail call ptr @proto_tree_add_uint(ptr noundef %94, i32 noundef %95, ptr noundef %0, i32 noundef 0, i32 noundef 0, i32 noundef %96)
  %.not.i = icmp eq ptr %97, null
  br i1 %.not.i, label %proto_item_set_generated.exit, label %98

98:                                               ; preds = %93
  %99 = getelementptr inbounds nuw i8, ptr %97, i64 40
  %100 = load ptr, ptr %99, align 8
  %.not5.i = icmp eq ptr %100, null
  br i1 %.not5.i, label %proto_item_set_generated.exit, label %101

101:                                              ; preds = %98
  %102 = getelementptr inbounds nuw i8, ptr %100, i64 28
  %103 = load i32, ptr %102, align 4
  %104 = or i32 %103, 2
  store i32 %104, ptr %102, align 4
  br label %proto_item_set_generated.exit

proto_item_set_generated.exit:                    ; preds = %101, %98, %93, %75, %85, %59
  %.0 = phi i32 [ %60, %59 ], [ %92, %85 ], [ %1, %75 ], [ %1, %93 ], [ %1, %98 ], [ %1, %101 ]
  call void @llvm.lifetime.end.p0(i64 1, ptr nonnull %10) #3
  ret i32 %.0
}